; Function Attrs: nounwind uwtable
define void @Wlc_WinCompute_rec(ptr noundef readonly captures(none) %0, ptr noundef %1, ptr noundef captures(none) %2, ptr noundef captures(none) %3) local_unnamed_addr #2 {
  %5 = load i16, ptr %1, align 8
  %6 = and i16 %5, 128
  %.not = icmp eq i16 %6, 0
  br i1 %.not, label %7, label %95

7:                                                ; preds = %4
  %8 = or disjoint i16 %5, 128
  store i16 %8, ptr %1, align 8
  %9 = and i16 %5, 63
  switch i16 %9, label %Wlc_ObjIsArithm.exit [
    i16 6, label %.critedge29
    i16 7, label %.critedge29
    i16 15, label %.critedge29
    i16 24, label %.critedge29
    i16 25, label %.critedge29
    i16 43, label %.critedge29
    i16 44, label %.critedge29
    i16 45, label %.critedge29
    i16 50, label %.critedge29
  ]

Wlc_ObjIsArithm.exit:                             ; preds = %7
  %10 = getelementptr i8, ptr %0, i64 640
  %.val20 = load ptr, ptr %10, align 8, !tbaa !11
  %11 = ptrtoint ptr %1 to i64
  %12 = ptrtoint ptr %.val20 to i64
  %13 = sub i64 %11, %12
  %14 = getelementptr inbounds nuw i8, ptr %2, i64 4
  %15 = load i32, ptr %14, align 4, !tbaa !3
  %16 = load i32, ptr %2, align 8, !tbaa !27
  %17 = icmp eq i32 %15, %16
  br i1 %17, label %18, label %.Vec_IntGrow.exit10_crit_edge.i

.Vec_IntGrow.exit10_crit_edge.i:                  ; preds = %Wlc_ObjIsArithm.exit
  %.phi.trans.insert.i = getelementptr inbounds nuw i8, ptr %2, i64 8
  %.pre.i = load ptr, ptr %.phi.trans.insert.i, align 8, !tbaa !10
  br label %Vec_IntPush.exit

18:                                               ; preds = %Wlc_ObjIsArithm.exit
  %19 = icmp slt i32 %15, 16
  br i1 %19, label %20, label %28

20:                                               ; preds = %18
  %21 = getelementptr inbounds nuw i8, ptr %2, i64 8
  %22 = load ptr, ptr %21, align 8, !tbaa !10
  %.not9.i.i = icmp eq ptr %22, null
  br i1 %.not9.i.i, label %25, label %23

23:                                               ; preds = %20
  %24 = tail call dereferenceable_or_null(64) ptr @realloc(ptr noundef nonnull %22, i64 noundef 64) #10
  br label %Vec_IntGrow.exit.i

25:                                               ; preds = %20
  %26 = tail call noalias dereferenceable_or_null(64) ptr @malloc(i64 noundef 64) #11
  br label %Vec_IntGrow.exit.i

Vec_IntGrow.exit.i:                               ; preds = %25, %23
  %27 = phi ptr [ %24, %23 ], [ %26, %25 ]
  store ptr %27, ptr %21, align 8, !tbaa !10
  store i32 16, ptr %2, align 8, !tbaa !27
  br label %Vec_IntPush.exit

28:                                               ; preds = %18
  %29 = shl nuw nsw i32 %15, 1
  %30 = getelementptr inbounds nuw i8, ptr %2, i64 8
  %31 = load ptr, ptr %30, align 8, !tbaa !10
  %.not9.i9.i = icmp eq ptr %31, null
  %32 = zext nneg i32 %29 to i64
  %33 = shl nuw nsw i64 %32, 2
  br i1 %.not9.i9.i, label %36, label %34

34:                                               ; preds = %28
  %35 = tail call ptr @realloc(ptr noundef nonnull %31, i64 noundef %33) #10
  br label %38

36:                                               ; preds = %28
  %37 = tail call noalias ptr @malloc(i64 noundef %33) #11
  br label %38

38:                                               ; preds = %36, %34
  %39 = phi ptr [ %35, %34 ], [ %37, %36 ]
  store ptr %39, ptr %30, align 8, !tbaa !10
  store i32 %29, ptr %2, align 8, !tbaa !27
  br label %Vec_IntPush.exit

Vec_IntPush.exit:                                 ; preds = %.Vec_IntGrow.exit10_crit_edge.i, %Vec_IntGrow.exit.i, %38
  %40 = phi ptr [ %.pre.i, %.Vec_IntGrow.exit10_crit_edge.i ], [ %39, %38 ], [ %27, %Vec_IntGrow.exit.i ]
  %41 = load i32, ptr %14, align 4, !tbaa !3
  %42 = add nsw i32 %41, 1
  store i32 %42, ptr %14, align 4, !tbaa !3
  br label %.sink.split

.critedge29:                                      ; preds = %7, %7, %7, %7, %7, %7, %7, %7, %7
  %43 = getelementptr i8, ptr %1, i64 4
  %.val1930 = load i32, ptr %43, align 4, !tbaa !23
  %44 = icmp sgt i32 %.val1930, 0
  br i1 %44, label %.lr.ph, label %.critedge

.lr.ph:                                           ; preds = %.critedge29
  %45 = getelementptr inbounds nuw i8, ptr %1, i64 16
  %46 = getelementptr i8, ptr %0, i64 640
  br label %47

47:                                               ; preds = %.lr.ph, %Wlc_ObjFaninId.exit
  %indvars.iv = phi i64 [ 0, %.lr.ph ], [ %indvars.iv.next, %Wlc_ObjFaninId.exit ]
  %.val1932 = phi i32 [ %.val1930, %.lr.ph ], [ %.val19, %Wlc_ObjFaninId.exit ]
  %48 = icmp ugt i32 %.val1932, 2
  br i1 %48, label %Wlc_ObjHasArray.exit.thread.i.i, label %49

49:                                               ; preds = %47
  %50 = load i16, ptr %1, align 8
  %51 = and i16 %50, 63
  switch i16 %51, label %Wlc_ObjFaninId.exit [
    i16 6, label %Wlc_ObjHasArray.exit.thread.i.i
    i16 22, label %Wlc_ObjHasArray.exit.thread.i.i
  ]

Wlc_ObjHasArray.exit.thread.i.i:                  ; preds = %49, %49, %47
  %52 = load ptr, ptr %45, align 8, !tbaa !25
  br label %Wlc_ObjFaninId.exit

Wlc_ObjFaninId.exit:                              ; preds = %49, %Wlc_ObjHasArray.exit.thread.i.i
  %53 = phi ptr [ %52, %Wlc_ObjHasArray.exit.thread.i.i ], [ %45, %49 ]
  %54 = getelementptr inbounds nuw i32, ptr %53, i64 %indvars.iv
  %55 = load i32, ptr %54, align 4, !tbaa !20
  %.val = load ptr, ptr %46, align 8, !tbaa !11
  %56 = sext i32 %55 to i64
  %57 = getelementptr inbounds %struct.Wlc_Obj_t_, ptr %.val, i64 %56
  tail call void @Wlc_WinCompute_rec(ptr noundef %0, ptr noundef %57, ptr noundef %2, ptr noundef %3)
  %indvars.iv.next = add nuw nsw i64 %indvars.iv, 1
  %.val19 = load i32, ptr %43, align 4, !tbaa !23
  %58 = sext i32 %.val19 to i64
  %59 = icmp slt i64 %indvars.iv.next, %58
  br i1 %59, label %47, label %.critedge, !llvm.loop !28

.critedge:                                        ; preds = %Wlc_ObjFaninId.exit, %.critedge29
  %60 = getelementptr i8, ptr %0, i64 640
  %.val21 = load ptr, ptr %60, align 8, !tbaa !11
  %61 = ptrtoint ptr %1 to i64
  %62 = ptrtoint ptr %.val21 to i64
  %63 = sub i64 %61, %62
  %64 = getelementptr inbounds nuw i8, ptr %3, i64 4
  %65 = load i32, ptr %64, align 4, !tbaa !3
  %66 = load i32, ptr %3, align 8, !tbaa !27
  %67 = icmp eq i32 %65, %66
  br i1 %67, label %68, label %.Vec_IntGrow.exit10_crit_edge.i22

.Vec_IntGrow.exit10_crit_edge.i22:                ; preds = %.critedge
  %.phi.trans.insert.i23 = getelementptr inbounds nuw i8, ptr %3, i64 8
  %.pre.i24 = load ptr, ptr %.phi.trans.insert.i23, align 8, !tbaa !10
  br label %Vec_IntPush.exit28

68:                                               ; preds = %.critedge
  %69 = icmp slt i32 %65, 16
  br i1 %69, label %70, label %78

70:                                               ; preds = %68
  %71 = getelementptr inbounds nuw i8, ptr %3, i64 8
  %72 = load ptr, ptr %71, align 8, !tbaa !10
  %.not9.i.i26 = icmp eq ptr %72, null
  br i1 %.not9.i.i26, label %75, label %73

73:                                               ; preds = %70
  %74 = tail call dereferenceable_or_null(64) ptr @realloc(ptr noundef nonnull %72, i64 noundef 64) #10
  br label %Vec_IntGrow.exit.i27

75:                                               ; preds = %70
  %76 = tail call noalias dereferenceable_or_null(64) ptr @malloc(i64 noundef 64) #11
  br label %Vec_IntGrow.exit.i27

Vec_IntGrow.exit.i27:                             ; preds = %75, %73
  %77 = phi ptr [ %74, %73 ], [ %76, %75 ]
  store ptr %77, ptr %71, align 8, !tbaa !10
  store i32 16, ptr %3, align 8, !tbaa !27
  br label %Vec_IntPush.exit28

78:                                               ; preds = %68
  %79 = shl nuw nsw i32 %65, 1
  %80 = getelementptr inbounds nuw i8, ptr %3, i64 8
  %81 = load ptr, ptr %80, align 8, !tbaa !10
  %.not9.i9.i25 = icmp eq ptr %81, null
  %82 = zext nneg i32 %79 to i64
  %83 = shl nuw nsw i64 %82, 2
  br i1 %.not9.i9.i25, label %86, label %84

84:                                               ; preds = %78
  %85 = tail call ptr @realloc(ptr noundef nonnull %81, i64 noundef %83) #10
  br label %88

86:                                               ; preds = %78
  %87 = tail call noalias ptr @malloc(i64 noundef %83) #11
  br label %88

88:                                               ; preds = %86, %84
  %89 = phi ptr [ %85, %84 ], [ %87, %86 ]
  store ptr %89, ptr %80, align 8, !tbaa !10
  store i32 %79, ptr %3, align 8, !tbaa !27
  br label %Vec_IntPush.exit28

Vec_IntPush.exit28:                               ; preds = %.Vec_IntGrow.exit10_crit_edge.i22, %Vec_IntGrow.exit.i27, %88
  %90 = phi ptr [ %.pre.i24, %.Vec_IntGrow.exit10_crit_edge.i22 ], [ %89, %88 ], [ %77, %Vec_IntGrow.exit.i27 ]
  %91 = load i32, ptr %64, align 4, !tbaa !3
  %92 = add nsw i32 %91, 1
  store i32 %92, ptr %64, align 4, !tbaa !3
  br label %.sink.split

.sink.split:                                      ; preds = %Vec_IntPush.exit, %Vec_IntPush.exit28
  %.sink37 = phi i32 [ %91, %Vec_IntPush.exit28 ], [ %41, %Vec_IntPush.exit ]
  %.sink35 = phi ptr [ %90, %Vec_IntPush.exit28 ], [ %40, %Vec_IntPush.exit ]
  %.sink.in.in = phi i64 [ %63, %Vec_IntPush.exit28 ], [ %13, %Vec_IntPush.exit ]
  %.sink.in = sdiv exact i64 %.sink.in.in, 24
  %.sink = trunc i64 %.sink.in to i32
  %93 = sext i32 %.sink37 to i64
  %94 = getelementptr inbounds i32, ptr %.sink35, i64 %93
  store i32 %.sink, ptr %94, align 4, !tbaa !20
  br label %95

95:                                               ; preds = %.sink.split, %4
  ret void
}